target datalayout = "e-m:e-p270:32:32-p271:32:32-p272:64:64-i64:64-i128:128-f80:128-n8:16:32:64-S128"
target triple = "x86_64-pc-linux-gnu"

@.str.3 = private unnamed_addr constant [9 x i8] c"regexp.c\00", align 1
@.str.20 = private unnamed_addr constant [30 x i8] c"regular expression failed: %s\00", align 1
@__func__.RE_wchar_execute = private unnamed_addr constant [17 x i8] c"RE_wchar_execute\00", align 1

; Function Attrs: nounwind uwtable
define internal zeroext i1 @RE_wchar_execute(ptr noundef %0, ptr noundef %1, i32 noundef %2, i32 noundef %3, i32 noundef %4, ptr noundef %5) #0 {
  %7 = alloca ptr, align 8
  %8 = alloca ptr, align 8
  %9 = alloca i32, align 4
  %10 = alloca i32, align 4
  %11 = alloca i32, align 4
  %12 = alloca ptr, align 8
  %13 = alloca i32, align 4
  %14 = alloca [100 x i8], align 16
  store ptr %0, ptr %7, align 8
  store ptr %1, ptr %8, align 8
  store i32 %2, ptr %9, align 4
  store i32 %3, ptr %10, align 4
  store i32 %4, ptr %11, align 4
  store ptr %5, ptr %12, align 8
  call void @llvm.lifetime.start.p0(i64 4, ptr %13) #8
  call void @llvm.lifetime.start.p0(i64 100, ptr %14) #8
  %15 = load ptr, ptr %7, align 8
  %16 = load ptr, ptr %8, align 8
  %17 = load i32, ptr %9, align 4
  %18 = sext i32 %17 to i64
  %19 = load i32, ptr %10, align 4
  %20 = sext i32 %19 to i64
  %21 = load i32, ptr %11, align 4
  %22 = sext i32 %21 to i64
  %23 = load ptr, ptr %12, align 8
  %24 = call i32 @pg_regexec(ptr noundef %15, ptr noundef %16, i64 noundef %18, i64 noundef %20, ptr noundef null, i64 noundef %22, ptr noundef %23, i32 noundef 0)
  store i32 %24, ptr %13, align 4
  %25 = load i32, ptr %13, align 4
  %26 = icmp ne i32 %25, 0
  br i1 %26, label %27, label %47

27:                                               ; preds = %6
  %28 = load i32, ptr %13, align 4
  %29 = icmp ne i32 %28, 1
  br i1 %29, label %30, label %47

30:                                               ; preds = %27
  %31 = load i32, ptr %13, align 4
  %32 = load ptr, ptr %7, align 8
  %33 = getelementptr inbounds [100 x i8], ptr %14, i64 0, i64 0
  %34 = call i64 @pg_regerror(i32 noundef %31, ptr noundef %32, ptr noundef %33, i64 noundef 100)
  br label %35

35:                                               ; preds = %30
  br i1 true, label %36, label %38

36:                                               ; preds = %35
  %37 = call zeroext i1 @errstart_cold(i32 noundef 21, ptr noundef null) #10
  br i1 %37, label %40, label %44

38:                                               ; preds = %35
  %39 = call zeroext i1 @errstart(i32 noundef 21, ptr noundef null)
  br i1 %39, label %40, label %44

40:                                               ; preds = %38, %36
  %41 = call i32 @errcode(i32 noundef 302252162)
  %42 = getelementptr inbounds [100 x i8], ptr %14, i64 0, i64 0
  %43 = call i32 (ptr, ...) @errmsg(ptr noundef @.str.20, ptr noundef %42)
  call void @errfinish(ptr noundef @.str.3, i32 noundef 304, ptr noundef @__func__.RE_wchar_execute)
  br label %44

44:                                               ; preds = %40, %38, %36
  unreachable

45:                                               ; No predecessors!
  br label %46

46:                                               ; preds = %45
  br label %47

47:                                               ; preds = %46, %27, %6
  %48 = load i32, ptr %13, align 4
  %49 = icmp eq i32 %48, 0
  call void @llvm.lifetime.end.p0(i64 100, ptr %14) #8
  call void @llvm.lifetime.end.p0(i64 4, ptr %13) #8
  ret i1 %49
}