; Function Attrs: nounwind uwtable
define internal fastcc zeroext i1 @RE_wchar_execute(ptr noundef %0, i32 noundef %1, i32 noundef %2, i32 noundef %3, ptr noundef %4) unnamed_addr #0 {
  %6 = alloca [100 x i8], align 16
  call void @llvm.lifetime.start.p0(i64 100, ptr nonnull %6) #9
  %7 = sext i32 %1 to i64
  %8 = sext i32 %2 to i64
  %9 = sext i32 %3 to i64
  %10 = tail call i32 @pg_regexec(ptr noundef nonnull getelementptr inbounds nuw (i8, ptr @re_array, i64 32), ptr noundef %0, i64 noundef %7, i64 noundef %8, ptr noundef null, i64 noundef %9, ptr noundef %4, i32 noundef 0) #9
  %or.cond = icmp ugt i32 %10, 1
  br i1 %or.cond, label %11, label %16

11:                                               ; preds = %5
  %12 = call i64 @pg_regerror(i32 noundef %10, ptr noundef nonnull getelementptr inbounds nuw (i8, ptr @re_array, i64 32), ptr noundef nonnull %6, i64 noundef 100) #9
  %13 = call zeroext i1 @errstart_cold(i32 noundef 21, ptr noundef null) #10
  call void @llvm.assume(i1 %13)
  %14 = call i32 @errcode(i32 noundef 302252162) #9
  %15 = call i32 (ptr, ...) @errmsg(ptr noundef nonnull @.str.20, ptr noundef nonnull %6) #9
  call void @errfinish(ptr noundef nonnull @.str.3, i32 noundef 304, ptr noundef nonnull @__func__.RE_wchar_execute) #9
  unreachable

16:                                               ; preds = %5
  %17 = icmp eq i32 %10, 0
  call void @llvm.lifetime.end.p0(i64 100, ptr nonnull %6) #9
  ret i1 %17
}